target datalayout = "e-m:e-p270:32:32-p271:32:32-p272:64:64-i64:64-i128:128-f80:128-n8:16:32:64-S128"
target triple = "x86_64-pc-linux-gnu"

@g_assert_poison = external global ptr, align 8
@.str.4 = private unnamed_addr constant [39 x i8] c"src/hotspot/cpu/x86/nativeInst_x86.cpp\00", align 1
@.str.7 = private unnamed_addr constant [47 x i8] c"guarantee(disp == (intptr_t)(jint)disp) failed\00", align 1
@.str.8 = private unnamed_addr constant [22 x i8] c"must be 32-bit offset\00", align 1
@.str.11 = private unnamed_addr constant [29 x i8] c"guarantee(is_aligned) failed\00", align 1
@.str.12 = private unnamed_addr constant [28 x i8] c"destination must be aligned\00", align 1
@.str.29 = private unnamed_addr constant [39 x i8] c"src/hotspot/cpu/x86/nativeInst_x86.hpp\00", align 1

; Function Attrs: mustprogress nounwind uwtable
define hidden void @_ZN17NativeInstruction5wroteEi(ptr noundef nonnull align 1 dereferenceable(1) %0, i32 noundef %1) #1 align 2 {
  %3 = alloca ptr, align 8
  %4 = alloca i32, align 4
  store ptr %0, ptr %3, align 8
  store i32 %1, ptr %4, align 4
  %5 = load ptr, ptr %3, align 8
  %6 = load i32, ptr %4, align 4
  %7 = call noundef ptr @_ZNK17NativeInstruction7addr_atEi(ptr noundef nonnull align 1 dereferenceable(1) %5, i32 noundef %6)
  call void @_ZN14AbstractICache15invalidate_wordEPh(ptr noundef %7)
  ret void
}

; Function Attrs: mustprogress nounwind uwtable
define linkonce_odr hidden noundef ptr @_ZNK17NativeInstruction7addr_atEi(ptr noundef nonnull align 1 dereferenceable(1) %0, i32 noundef %1) #1 comdat align 2 {
  %3 = alloca ptr, align 8
  %4 = alloca i32, align 4
  store ptr %0, ptr %3, align 8
  store i32 %1, ptr %4, align 4
  %5 = load ptr, ptr %3, align 8
  %6 = load i32, ptr %4, align 4
  %7 = sext i32 %6 to i64
  %8 = getelementptr inbounds i8, ptr %5, i64 %7
  ret ptr %8
}

; Function Attrs: mustprogress nounwind uwtable
define linkonce_odr hidden void @_ZN17NativeInstruction10set_int_atEii(ptr noundef nonnull align 1 dereferenceable(1) %0, i32 noundef %1, i32 noundef %2) #1 comdat align 2 {
  %4 = alloca ptr, align 8
  %5 = alloca i32, align 4
  %6 = alloca i32, align 4
  store ptr %0, ptr %4, align 8
  store i32 %1, ptr %5, align 4
  store i32 %2, ptr %6, align 4
  %7 = load ptr, ptr %4, align 8
  %8 = load i32, ptr %6, align 4
  %9 = load i32, ptr %5, align 4
  %10 = call noundef ptr @_ZNK17NativeInstruction7addr_atEi(ptr noundef nonnull align 1 dereferenceable(1) %7, i32 noundef %9)
  store i32 %8, ptr %10, align 4
  %11 = load i32, ptr %5, align 4
  call void @_ZN17NativeInstruction5wroteEi(ptr noundef nonnull align 1 dereferenceable(1) %7, i32 noundef %11)
  ret void
}

; Function Attrs: mustprogress nounwind uwtable
define linkonce_odr hidden noundef ptr @_ZNK10NativeCall14return_addressEv(ptr noundef nonnull align 1 dereferenceable(1) %0) #1 comdat align 2 {
  %2 = alloca ptr, align 8
  store ptr %0, ptr %2, align 8
  %3 = load ptr, ptr %2, align 8
  %4 = call noundef ptr @_ZNK17NativeInstruction7addr_atEi(ptr noundef nonnull align 1 dereferenceable(1) %3, i32 noundef 5)
  ret ptr %4
}

; Function Attrs: mustprogress nounwind uwtable
define linkonce_odr hidden noundef ptr @_ZNK10NativeCall20displacement_addressEv(ptr noundef nonnull align 1 dereferenceable(1) %0) #1 comdat align 2 {
  %2 = alloca ptr, align 8
  store ptr %0, ptr %2, align 8
  %3 = load ptr, ptr %2, align 8
  %4 = call noundef ptr @_ZNK17NativeInstruction7addr_atEi(ptr noundef nonnull align 1 dereferenceable(1) %3, i32 noundef 1)
  ret ptr %4
}

; Function Attrs: mustprogress nounwind uwtable
define linkonce_odr hidden void @_ZN10NativeCall15set_destinationEPh(ptr noundef nonnull align 1 dereferenceable(1) %0, ptr noundef %1) #1 comdat align 2 {
  %3 = alloca ptr, align 8
  %4 = alloca ptr, align 8
  %5 = alloca i64, align 8
  store ptr %0, ptr %3, align 8
  store ptr %1, ptr %4, align 8
  %6 = load ptr, ptr %3, align 8
  %7 = load ptr, ptr %4, align 8
  %8 = call noundef ptr @_ZNK10NativeCall14return_addressEv(ptr noundef nonnull align 1 dereferenceable(1) %6)
  %9 = ptrtoint ptr %7 to i64
  %10 = ptrtoint ptr %8 to i64
  %11 = sub i64 %9, %10
  store i64 %11, ptr %5, align 8
  br label %12

12:                                               ; preds = %2
  %13 = load i64, ptr %5, align 8
  %14 = load i64, ptr %5, align 8
  %15 = trunc i64 %14 to i32
  %16 = sext i32 %15 to i64
  %17 = icmp eq i64 %13, %16
  br i1 %17, label %20, label %18

18:                                               ; preds = %12
  %19 = load ptr, ptr @g_assert_poison, align 8
  store i8 88, ptr %19, align 1
  call void (ptr, i32, ptr, ptr, ...) @_Z15report_vm_errorPKciS0_S0_z(ptr noundef @.str.29, i32 noundef 131, ptr noundef @.str.7, ptr noundef @.str.8) #4
  unreachable

20:                                               ; preds = %12
  br label %21

21:                                               ; preds = %20
  %22 = load ptr, ptr %4, align 8
  %23 = call noundef ptr @_ZNK10NativeCall14return_addressEv(ptr noundef nonnull align 1 dereferenceable(1) %6)
  %24 = ptrtoint ptr %22 to i64
  %25 = ptrtoint ptr %23 to i64
  %26 = sub i64 %24, %25
  %27 = trunc i64 %26 to i32
  call void @_ZN17NativeInstruction10set_int_atEii(ptr noundef nonnull align 1 dereferenceable(1) %6, i32 noundef 1, i32 noundef %27)
  ret void
}

; Function Attrs: mustprogress nounwind uwtable
define hidden noundef zeroext i1 @_ZN10NativeCall23is_displacement_alignedEv(ptr noundef nonnull align 1 dereferenceable(1) %0) #1 align 2 {
  %2 = alloca ptr, align 8
  store ptr %0, ptr %2, align 8
  %3 = load ptr, ptr %2, align 8
  %4 = call noundef ptr @_ZNK10NativeCall20displacement_addressEv(ptr noundef nonnull align 1 dereferenceable(1) %3)
  %5 = ptrtoint ptr %4 to i64
  %6 = urem i64 %5, 4
  %7 = icmp eq i64 %6, 0
  ret i1 %7
}

; Function Attrs: mustprogress nounwind uwtable
define hidden void @_ZN10NativeCall23set_destination_mt_safeEPh(ptr noundef nonnull align 1 dereferenceable(1) %0, ptr noundef %1) #1 align 2 {
  %3 = alloca ptr, align 8
  %4 = alloca ptr, align 8
  %5 = alloca i8, align 1
  store ptr %0, ptr %3, align 8
  store ptr %1, ptr %4, align 8
  %6 = load ptr, ptr %3, align 8
  %7 = call noundef zeroext i1 @_ZN10NativeCall23is_displacement_alignedEv(ptr noundef nonnull align 1 dereferenceable(1) %6)
  %8 = zext i1 %7 to i8
  store i8 %8, ptr %5, align 1
  br label %9

9:                                                ; preds = %2
  %10 = load i8, ptr %5, align 1
  %11 = trunc i8 %10 to i1
  br i1 %11, label %14, label %12

12:                                               ; preds = %9
  %13 = load ptr, ptr @g_assert_poison, align 8
  store i8 88, ptr %13, align 1
  call void (ptr, i32, ptr, ptr, ...) @_Z15report_vm_errorPKciS0_S0_z(ptr noundef @.str.4, i32 noundef 153, ptr noundef @.str.11, ptr noundef @.str.12) #4
  unreachable

14:                                               ; preds = %9
  br label %15

15:                                               ; preds = %14
  %16 = load ptr, ptr %4, align 8
  call void @_ZN10NativeCall15set_destinationEPh(ptr noundef nonnull align 1 dereferenceable(1) %6, ptr noundef %16)
  ret void
}