; Function Attrs: mustprogress nounwind uwtable
define hidden void @_ZN10NativeCall23set_destination_mt_safeEPh(ptr noundef nonnull align 1 dereferenceable(1) %0, ptr noundef %1) local_unnamed_addr #0 align 2 {
  %3 = getelementptr inbounds i8, ptr %0, i64 1
  %4 = ptrtoint ptr %3 to i64
  %5 = and i64 %4, 3
  %6 = icmp eq i64 %5, 0
  br i1 %6, label %9, label %7

7:                                                ; preds = %2
  %8 = load ptr, ptr @g_assert_poison, align 8
  store i8 88, ptr %8, align 1
  tail call void (ptr, i32, ptr, ptr, ...) @_Z15report_vm_errorPKciS0_S0_z(ptr noundef nonnull @.str.4, i32 noundef 153, ptr noundef nonnull @.str.11, ptr noundef nonnull @.str.12) #8
  unreachable

9:                                                ; preds = %2
  %10 = getelementptr inbounds i8, ptr %0, i64 5
  %11 = ptrtoint ptr %1 to i64
  %12 = ptrtoint ptr %10 to i64
  %13 = sub i64 %11, %12
  %14 = add i64 %13, 2147483648
  %15 = icmp ult i64 %14, 4294967296
  br i1 %15, label %_ZN10NativeCall15set_destinationEPh.exit, label %16

16:                                               ; preds = %9
  %17 = load ptr, ptr @g_assert_poison, align 8
  store i8 88, ptr %17, align 1
  tail call void (ptr, i32, ptr, ptr, ...) @_Z15report_vm_errorPKciS0_S0_z(ptr noundef nonnull @.str.29, i32 noundef 131, ptr noundef nonnull @.str.7, ptr noundef nonnull @.str.8) #8
  unreachable

_ZN10NativeCall15set_destinationEPh.exit:         ; preds = %9
  %18 = trunc i64 %13 to i32
  store i32 %18, ptr %3, align 4
  tail call void @_ZN14AbstractICache15invalidate_wordEPh(ptr noundef nonnull %3) #7
  ret void
}